; Function Attrs: nounwind uwtable
define noalias nonnull ptr @l_Lean_initFn____x40_Lean_Util_PPExt___hyg_408____lambda__1(ptr readnone captures(none) %0, ptr noundef %1, ptr noundef %2) local_unnamed_addr #0 {
  %4 = tail call ptr @lean_expr_dbg_to_string(ptr noundef %1) #5
  tail call void @lean_inc_heartbeat() #5
  %5 = tail call noalias ptr @mi_malloc_small(i64 noundef 16) #5
  %6 = icmp eq ptr %5, null
  br i1 %6, label %7, label %lean_alloc_ctor.exit

7:                                                ; preds = %3
  tail call void @lean_internal_panic_out_of_memory() #6
  unreachable

lean_alloc_ctor.exit:                             ; preds = %3
  %8 = getelementptr inbounds nuw i8, ptr %5, i64 4
  store i32 1, ptr %5, align 4, !tbaa !8
  store i32 50397200, ptr %8, align 4
  %9 = getelementptr inbounds nuw i8, ptr %5, i64 8
  store ptr %4, ptr %9, align 8, !tbaa !4
  tail call void @lean_inc_heartbeat() #5
  %10 = tail call noalias ptr @mi_malloc_small(i64 noundef 24) #5
  %11 = icmp eq ptr %10, null
  br i1 %11, label %12, label %lean_alloc_ctor.exit12

12:                                               ; preds = %lean_alloc_ctor.exit
  tail call void @lean_internal_panic_out_of_memory() #6
  unreachable

lean_alloc_ctor.exit12:                           ; preds = %lean_alloc_ctor.exit
  %13 = getelementptr inbounds nuw i8, ptr %10, i64 4
  store i32 1, ptr %10, align 4, !tbaa !8
  store i32 131096, ptr %13, align 4
  %14 = getelementptr inbounds nuw i8, ptr %10, i64 8
  store ptr %5, ptr %14, align 8, !tbaa !4
  %15 = getelementptr inbounds nuw i8, ptr %10, i64 16
  store ptr inttoptr (i64 1 to ptr), ptr %15, align 8, !tbaa !4
  tail call void @lean_inc_heartbeat() #5
  %16 = tail call noalias ptr @mi_malloc_small(i64 noundef 24) #5
  %17 = icmp eq ptr %16, null
  br i1 %17, label %18, label %lean_alloc_ctor.exit13

18:                                               ; preds = %lean_alloc_ctor.exit12
  tail call void @lean_internal_panic_out_of_memory() #6
  unreachable

lean_alloc_ctor.exit13:                           ; preds = %lean_alloc_ctor.exit12
  %19 = getelementptr inbounds nuw i8, ptr %16, i64 4
  store i32 1, ptr %16, align 4, !tbaa !8
  store i32 131096, ptr %19, align 4
  %20 = getelementptr inbounds nuw i8, ptr %16, i64 8
  store ptr %10, ptr %20, align 8, !tbaa !4
  %21 = getelementptr inbounds nuw i8, ptr %16, i64 16
  store ptr %2, ptr %21, align 8, !tbaa !4
  ret ptr %16
}